target datalayout = "e-m:e-p270:32:32-p271:32:32-p272:64:64-i64:64-i128:128-f80:128-n8:16:32:64-S128"
target triple = "x86_64-pc-linux-gnu"

%class.XMark = type <{ ptr, ptr, [48 x i8], %class.XMarkStackAllocator, %class.XMarkStripeSet, %class.XMarkTerminate, i8, [7 x i8], i64, i64, i64, i64, i64, i64, i32, [4 x i8] }>
%class.XMarkStackAllocator = type { %class.XStackList, [56 x i8], %class.XMarkStackSpace }
%class.XStackList = type { ptr }
%class.XMarkStackSpace = type { %class.XLock, i64, i64, i64 }
%class.XLock = type { %class.PlatformMutex }
%class.PlatformMutex = type { %union.pthread_mutex_t }
%union.pthread_mutex_t = type { %struct.__pthread_mutex_s }
%struct.__pthread_mutex_s = type { i32, i32, i32, i32, i32, i16, i16, %struct.__pthread_internal_list }
%struct.__pthread_internal_list = type { ptr, ptr }
%class.XMarkStripeSet = type { i64, i64, [48 x i8], [16 x %class.XMarkStripe] }
%class.XMarkStripe = type { %class.XStackList.0, [56 x i8], %class.XStackList.0, [56 x i8] }
%class.XStackList.0 = type { ptr }
%class.XMarkTerminate = type { i32, [60 x i8], i32, i32, [56 x i8] }
%class.XVerifyMarkStacksEmptyClosure = type { %class.ThreadClosure, ptr }
%class.ThreadClosure = type { ptr }

@g_assert_poison = external global ptr, align 8
@.str.13 = private unnamed_addr constant [33 x i8] c"src/hotspot/share/gc/x/xMark.cpp\00", align 1
@.str.14 = private unnamed_addr constant [38 x i8] c"guarantee(_stripes.is_empty()) failed\00", align 1
@.str.15 = private unnamed_addr constant [16 x i8] c"Should be empty\00", align 1
@_ZTV13ThreadClosure = linkonce_odr hidden unnamed_addr constant { [3 x ptr] } { [3 x ptr] [ptr null, ptr null, ptr @__cxa_pure_virtual] }, comdat, align 8
@_ZTV29XVerifyMarkStacksEmptyClosure = linkonce_odr hidden unnamed_addr constant { [3 x ptr] } { [3 x ptr] [ptr null, ptr null, ptr @_ZN29XVerifyMarkStacksEmptyClosure9do_threadEP6Thread] }, comdat, align 8

; Function Attrs: mustprogress nounwind uwtable
define linkonce_odr hidden void @_ZN13ThreadClosureC2Ev(ptr noundef nonnull align 8 dereferenceable(8) %0) unnamed_addr #1 comdat align 2 {
  %2 = alloca ptr, align 8
  store ptr %0, ptr %2, align 8
  %3 = load ptr, ptr %2, align 8
  store ptr getelementptr inbounds inrange(-16, 8) ({ [3 x ptr] }, ptr @_ZTV13ThreadClosure, i32 0, i32 0, i32 2), ptr %3, align 8
  ret void
}

; Function Attrs: mustprogress nounwind uwtable
define linkonce_odr hidden void @_ZN29XVerifyMarkStacksEmptyClosureC2EPK14XMarkStripeSet(ptr noundef nonnull align 8 dereferenceable(16) %0, ptr noundef %1) unnamed_addr #1 comdat align 2 {
  %3 = alloca ptr, align 8
  %4 = alloca ptr, align 8
  store ptr %0, ptr %3, align 8
  store ptr %1, ptr %4, align 8
  %5 = load ptr, ptr %3, align 8
  call void @_ZN13ThreadClosureC2Ev(ptr noundef nonnull align 8 dereferenceable(8) %5) #11
  store ptr getelementptr inbounds inrange(-16, 8) ({ [3 x ptr] }, ptr @_ZTV29XVerifyMarkStacksEmptyClosure, i32 0, i32 0, i32 2), ptr %5, align 8
  %6 = getelementptr inbounds %class.XVerifyMarkStacksEmptyClosure, ptr %5, i32 0, i32 1
  %7 = load ptr, ptr %4, align 8
  store ptr %7, ptr %6, align 8
  ret void
}

; Function Attrs: mustprogress nounwind uwtable
define hidden void @_ZNK5XMark23verify_all_stacks_emptyEv(ptr noundef nonnull align 64 dereferenceable(2492) %0) #1 align 2 {
  %2 = alloca ptr, align 8
  %3 = alloca %class.XVerifyMarkStacksEmptyClosure, align 8
  store ptr %0, ptr %2, align 8
  %4 = load ptr, ptr %2, align 8
  %5 = getelementptr inbounds %class.XMark, ptr %4, i32 0, i32 4
  call void @_ZN29XVerifyMarkStacksEmptyClosureC2EPK14XMarkStripeSet(ptr noundef nonnull align 8 dereferenceable(16) %3, ptr noundef %5)
  call void @_ZN7Threads10threads_doEP13ThreadClosure(ptr noundef %3)
  br label %6

6:                                                ; preds = %1
  %7 = getelementptr inbounds %class.XMark, ptr %4, i32 0, i32 4
  %8 = call noundef zeroext i1 @_ZNK14XMarkStripeSet8is_emptyEv(ptr noundef nonnull align 64 dereferenceable(2112) %7)
  br i1 %8, label %11, label %9

9:                                                ; preds = %6
  %10 = load ptr, ptr @g_assert_poison, align 8
  store i8 88, ptr %10, align 1
  call void (ptr, i32, ptr, ptr, ...) @_Z15report_vm_errorPKciS0_S0_z(ptr noundef @.str.13, i32 noundef 876, ptr noundef @.str.14, ptr noundef @.str.15) #10
  unreachable

11:                                               ; preds = %6
  br label %12

12:                                               ; preds = %11
  ret void
}