; Function Attrs: mustprogress nounwind uwtable
define hidden void @_ZNK5XMark23verify_all_stacks_emptyEv(ptr noundef nonnull align 64 dereferenceable(2492) %0) local_unnamed_addr #0 align 2 {
  %2 = alloca %class.XVerifyMarkStacksEmptyClosure, align 8
  %3 = getelementptr inbounds i8, ptr %0, i64 192
  store ptr getelementptr inbounds inrange(-16, 8) (i8, ptr @_ZTV29XVerifyMarkStacksEmptyClosure, i64 16), ptr %2, align 8
  %4 = getelementptr inbounds i8, ptr %2, i64 8
  store ptr %3, ptr %4, align 8
  call void @_ZN7Threads10threads_doEP13ThreadClosure(ptr noundef nonnull %2) #17
  %5 = call noundef zeroext i1 @_ZNK14XMarkStripeSet8is_emptyEv(ptr noundef nonnull align 64 dereferenceable(2112) %3) #17
  br i1 %5, label %8, label %6

6:                                                ; preds = %1
  %7 = load ptr, ptr @g_assert_poison, align 8
  store i8 88, ptr %7, align 1
  call void (ptr, i32, ptr, ptr, ...) @_Z15report_vm_errorPKciS0_S0_z(ptr noundef nonnull @.str.13, i32 noundef 876, ptr noundef nonnull @.str.14, ptr noundef nonnull @.str.15) #18
  unreachable

8:                                                ; preds = %1
  ret void
}